target datalayout = "e-m:e-p270:32:32-p271:32:32-p272:64:64-i64:64-i128:128-f80:128-n8:16:32:64-S128"
target triple = "x86_64-pc-linux-gnu"

%"class.std::__cxx11::basic_string" = type { %"struct.std::__cxx11::basic_string<char>::_Alloc_hider", i64, %union.anon }
%"struct.std::__cxx11::basic_string<char>::_Alloc_hider" = type { ptr }
%union.anon = type { i64, [8 x i8] }
%"class.std::allocator" = type { i8 }
%"struct.open_spiel::dou_dizhu::TrioCombParams" = type { i32, i32, i32, i32 }
%"struct.std::array" = type { [15 x i32] }
%"struct.open_spiel::dou_dizhu::SingleRankHandParams" = type { i32, i32 }
%"struct.open_spiel::dou_dizhu::ChainOnlyHandParams" = type { i32, i32, i32 }

@.str.64 = private unnamed_addr constant [21 x i8] c"Non valid Action Ids\00", align 1

; Function Attrs: mustprogress nounwind uwtable
define linkonce_odr noundef nonnull align 4 dereferenceable(4) ptr @_ZNSt14__array_traitsIiLm15EE6_S_refERA15_Kim(ptr noundef nonnull align 4 dereferenceable(60) %0, i64 noundef %1) #4 comdat align 2 {
  %3 = alloca ptr, align 8
  %4 = alloca i64, align 8
  store ptr %0, ptr %3, align 8
  store i64 %1, ptr %4, align 8
  %5 = load ptr, ptr %3, align 8
  %6 = load i64, ptr %4, align 8
  %7 = getelementptr inbounds [15 x i32], ptr %5, i64 0, i64 %6
  ret ptr %7
}

; Function Attrs: mustprogress nounwind uwtable
define linkonce_odr noundef nonnull align 4 dereferenceable(4) ptr @_ZNSt5arrayIiLm15EEixEm(ptr noundef nonnull align 4 dereferenceable(60) %0, i64 noundef %1) #4 comdat align 2 {
  %3 = alloca ptr, align 8
  %4 = alloca i64, align 8
  store ptr %0, ptr %3, align 8
  store i64 %1, ptr %4, align 8
  %5 = load ptr, ptr %3, align 8
  %6 = getelementptr inbounds nuw %"struct.std::array", ptr %5, i32 0, i32 0
  %7 = load i64, ptr %4, align 8
  %8 = call noundef nonnull align 4 dereferenceable(4) ptr @_ZNSt14__array_traitsIiLm15EE6_S_refERA15_Kim(ptr noundef nonnull align 4 dereferenceable(60) %6, i64 noundef %7) #3
  ret ptr %8
}

; Function Attrs: mustprogress uwtable
define void @_ZN10open_spiel9dou_dizhu18SingleTrioCombHandEi(ptr dead_on_unwind noalias writable sret(%"struct.std::array") align 4 %0, i32 noundef %1) #5 {
  %3 = alloca i32, align 4
  %4 = alloca %"struct.open_spiel::dou_dizhu::TrioCombParams", align 4
  %5 = alloca i32, align 4
  %6 = alloca i32, align 4
  %7 = alloca i32, align 4
  store i32 %1, ptr %3, align 4
  call void @llvm.memset.p0.i64(ptr align 4 %0, i8 0, i64 60, i1 false)
  %8 = load i32, ptr %3, align 4
  %9 = call { i64, i64 } @_ZN10open_spiel9dou_dizhu23GetSingleTrioCombParamsEi(i32 noundef %8)
  %10 = getelementptr inbounds nuw { i64, i64 }, ptr %4, i32 0, i32 0
  %11 = extractvalue { i64, i64 } %9, 0
  store i64 %11, ptr %10, align 4
  %12 = getelementptr inbounds nuw { i64, i64 }, ptr %4, i32 0, i32 1
  %13 = extractvalue { i64, i64 } %9, 1
  store i64 %13, ptr %12, align 4
  %14 = getelementptr inbounds nuw %"struct.open_spiel::dou_dizhu::TrioCombParams", ptr %4, i32 0, i32 0
  %15 = load i32, ptr %14, align 4
  %16 = sext i32 %15 to i64
  %17 = call noundef nonnull align 4 dereferenceable(4) ptr @_ZNSt5arrayIiLm15EEixEm(ptr noundef nonnull align 4 dereferenceable(60) %0, i64 noundef %16) #3
  store i32 3, ptr %17, align 4
  %18 = getelementptr inbounds nuw %"struct.open_spiel::dou_dizhu::TrioCombParams", ptr %4, i32 0, i32 3
  %19 = load i32, ptr %18, align 4
  store i32 %19, ptr %5, align 4
  store i32 0, ptr %7, align 4
  store i32 0, ptr %6, align 4
  br label %20

20:                                               ; preds = %36, %2
  %21 = load i32, ptr %6, align 4
  %22 = icmp slt i32 %21, 15
  br i1 %22, label %23, label %39

23:                                               ; preds = %20
  %24 = load i32, ptr %6, align 4
  %25 = getelementptr inbounds nuw %"struct.open_spiel::dou_dizhu::TrioCombParams", ptr %4, i32 0, i32 0
  %26 = load i32, ptr %25, align 4
  %27 = icmp eq i32 %24, %26
  br i1 %27, label %28, label %29

28:                                               ; preds = %23
  br label %36

29:                                               ; preds = %23
  %30 = load i32, ptr %7, align 4
  %31 = add nsw i32 %30, 1
  store i32 %31, ptr %7, align 4
  %32 = load i32, ptr %5, align 4
  %33 = icmp eq i32 %30, %32
  br i1 %33, label %34, label %35

34:                                               ; preds = %29
  br label %39

35:                                               ; preds = %29
  br label %36

36:                                               ; preds = %35, %28
  %37 = load i32, ptr %6, align 4
  %38 = add nsw i32 %37, 1
  store i32 %38, ptr %6, align 4
  br label %20, !llvm.loop !23

39:                                               ; preds = %34, %20
  %40 = getelementptr inbounds nuw %"struct.open_spiel::dou_dizhu::TrioCombParams", ptr %4, i32 0, i32 2
  %41 = load i32, ptr %40, align 4
  %42 = icmp eq i32 %41, 1
  %43 = select i1 %42, i32 1, i32 2
  %44 = load i32, ptr %6, align 4
  %45 = sext i32 %44 to i64
  %46 = call noundef nonnull align 4 dereferenceable(4) ptr @_ZNSt5arrayIiLm15EEixEm(ptr noundef nonnull align 4 dereferenceable(60) %0, i64 noundef %45) #3
  store i32 %43, ptr %46, align 4
  ret void
}

; Function Attrs: mustprogress uwtable
define void @_ZN10open_spiel9dou_dizhu13ChainOnlyHandEi(ptr dead_on_unwind noalias writable sret(%"struct.std::array") align 4 %0, i32 noundef %1) #5 {
  %3 = alloca i32, align 4
  %4 = alloca %"struct.open_spiel::dou_dizhu::ChainOnlyHandParams", align 4
  %5 = alloca { i64, i32 }, align 8
  %6 = alloca i32, align 4
  store i32 %1, ptr %3, align 4
  call void @llvm.memset.p0.i64(ptr align 4 %0, i8 0, i64 60, i1 false)
  %7 = load i32, ptr %3, align 4
  %8 = call { i64, i32 } @_ZN10open_spiel9dou_dizhu22GetChainOnlyHandParamsEi(i32 noundef %7)
  store { i64, i32 } %8, ptr %5, align 8
  call void @llvm.memcpy.p0.p0.i64(ptr align 4 %4, ptr align 8 %5, i64 12, i1 false)
  store i32 0, ptr %6, align 4
  br label %9

9:                                                ; preds = %23, %2
  %10 = load i32, ptr %6, align 4
  %11 = getelementptr inbounds nuw %"struct.open_spiel::dou_dizhu::ChainOnlyHandParams", ptr %4, i32 0, i32 2
  %12 = load i32, ptr %11, align 4
  %13 = icmp slt i32 %10, %12
  br i1 %13, label %14, label %26

14:                                               ; preds = %9
  %15 = getelementptr inbounds nuw %"struct.open_spiel::dou_dizhu::ChainOnlyHandParams", ptr %4, i32 0, i32 1
  %16 = load i32, ptr %15, align 4
  %17 = getelementptr inbounds nuw %"struct.open_spiel::dou_dizhu::ChainOnlyHandParams", ptr %4, i32 0, i32 0
  %18 = load i32, ptr %17, align 4
  %19 = load i32, ptr %6, align 4
  %20 = add nsw i32 %18, %19
  %21 = sext i32 %20 to i64
  %22 = call noundef nonnull align 4 dereferenceable(4) ptr @_ZNSt5arrayIiLm15EEixEm(ptr noundef nonnull align 4 dereferenceable(60) %0, i64 noundef %21) #3
  store i32 %16, ptr %22, align 4
  br label %23

23:                                               ; preds = %14
  %24 = load i32, ptr %6, align 4
  %25 = add nsw i32 %24, 1
  store i32 %25, ptr %6, align 4
  br label %9, !llvm.loop !16

26:                                               ; preds = %9
  ret void
}

; Function Attrs: mustprogress uwtable
define void @_ZN10open_spiel9dou_dizhu14SingleRankHandEi(ptr dead_on_unwind noalias writable sret(%"struct.std::array") align 4 %0, i32 noundef %1) #5 {
  %3 = alloca i32, align 4
  %4 = alloca %"struct.open_spiel::dou_dizhu::SingleRankHandParams", align 4
  store i32 %1, ptr %3, align 4
  call void @llvm.memset.p0.i64(ptr align 4 %0, i8 0, i64 60, i1 false)
  %5 = load i32, ptr %3, align 4
  %6 = call i64 @_ZN10open_spiel9dou_dizhu23GetSingleRankHandParamsEi(i32 noundef %5)
  store i64 %6, ptr %4, align 4
  %7 = getelementptr inbounds nuw %"struct.open_spiel::dou_dizhu::SingleRankHandParams", ptr %4, i32 0, i32 1
  %8 = load i32, ptr %7, align 4
  %9 = getelementptr inbounds nuw %"struct.open_spiel::dou_dizhu::SingleRankHandParams", ptr %4, i32 0, i32 0
  %10 = load i32, ptr %9, align 4
  %11 = sext i32 %10 to i64
  %12 = call noundef nonnull align 4 dereferenceable(4) ptr @_ZNSt5arrayIiLm15EEixEm(ptr noundef nonnull align 4 dereferenceable(60) %0, i64 noundef %11) #3
  store i32 %8, ptr %12, align 4
  ret void
}

; Function Attrs: mustprogress uwtable
define void @_ZN10open_spiel9dou_dizhu12ActionToHandEi(ptr dead_on_unwind noalias writable sret(%"struct.std::array") align 4 %0, i32 noundef %1) #5 personality ptr @__gxx_personality_v0 {
  %3 = alloca i32, align 4
  %4 = alloca %"struct.std::array", align 4
  %5 = alloca %"struct.std::array", align 4
  %6 = alloca %"struct.std::array", align 4
  %7 = alloca %"struct.std::array", align 4
  %8 = alloca %"class.std::__cxx11::basic_string", align 8
  %9 = alloca %"class.std::allocator", align 1
  %10 = alloca ptr, align 8
  %11 = alloca i32, align 4
  store i32 %1, ptr %3, align 4
  call void @llvm.memset.p0.i64(ptr align 4 %0, i8 0, i64 60, i1 false)
  %12 = load i32, ptr %3, align 4
  %13 = icmp sge i32 %12, 4
  br i1 %13, label %14, label %17

14:                                               ; preds = %2
  %15 = load i32, ptr %3, align 4
  %16 = icmp slt i32 %15, 19
  br i1 %16, label %35, label %17

17:                                               ; preds = %14, %2
  %18 = load i32, ptr %3, align 4
  %19 = icmp sge i32 %18, 55
  br i1 %19, label %20, label %23

20:                                               ; preds = %17
  %21 = load i32, ptr %3, align 4
  %22 = icmp slt i32 %21, 68
  br i1 %22, label %35, label %23

23:                                               ; preds = %20, %17
  %24 = load i32, ptr %3, align 4
  %25 = icmp sge i32 %24, 120
  br i1 %25, label %26, label %29

26:                                               ; preds = %23
  %27 = load i32, ptr %3, align 4
  %28 = icmp slt i32 %27, 133
  br i1 %28, label %35, label %29

29:                                               ; preds = %26, %23
  %30 = load i32, ptr %3, align 4
  %31 = icmp sge i32 %30, 26043
  br i1 %31, label %32, label %37

32:                                               ; preds = %29
  %33 = load i32, ptr %3, align 4
  %34 = icmp slt i32 %33, 26056
  br i1 %34, label %35, label %37

35:                                               ; preds = %32, %26, %20, %14
  %36 = load i32, ptr %3, align 4
  call void @_ZN10open_spiel9dou_dizhu14SingleRankHandEi(ptr dead_on_unwind writable sret(%"struct.std::array") align 4 %4, i32 noundef %36)
  call void @llvm.memcpy.p0.p0.i64(ptr align 4 %0, ptr align 4 %4, i64 60, i1 false)
  br label %95

37:                                               ; preds = %32, %29
  %38 = load i32, ptr %3, align 4
  %39 = icmp sge i32 %38, 19
  br i1 %39, label %40, label %43

40:                                               ; preds = %37
  %41 = load i32, ptr %3, align 4
  %42 = icmp slt i32 %41, 55
  br i1 %42, label %55, label %43

43:                                               ; preds = %40, %37
  %44 = load i32, ptr %3, align 4
  %45 = icmp sge i32 %44, 68
  br i1 %45, label %46, label %49

46:                                               ; preds = %43
  %47 = load i32, ptr %3, align 4
  %48 = icmp slt i32 %47, 120
  br i1 %48, label %55, label %49

49:                                               ; preds = %46, %43
  %50 = load i32, ptr %3, align 4
  %51 = icmp sge i32 %50, 471
  br i1 %51, label %52, label %57

52:                                               ; preds = %49
  %53 = load i32, ptr %3, align 4
  %54 = icmp slt i32 %53, 516
  br i1 %54, label %55, label %57

55:                                               ; preds = %52, %46, %40
  %56 = load i32, ptr %3, align 4
  call void @_ZN10open_spiel9dou_dizhu13ChainOnlyHandEi(ptr dead_on_unwind writable sret(%"struct.std::array") align 4 %5, i32 noundef %56)
  call void @llvm.memcpy.p0.p0.i64(ptr align 4 %0, ptr align 4 %5, i64 60, i1 false)
  br label %94

57:                                               ; preds = %52, %49
  %58 = load i32, ptr %3, align 4
  %59 = icmp sge i32 %58, 133
  br i1 %59, label %60, label %65

60:                                               ; preds = %57
  %61 = load i32, ptr %3, align 4
  %62 = icmp slt i32 %61, 471
  br i1 %62, label %63, label %65

63:                                               ; preds = %60
  %64 = load i32, ptr %3, align 4
  call void @_ZN10open_spiel9dou_dizhu18SingleTrioCombHandEi(ptr dead_on_unwind writable sret(%"struct.std::array") align 4 %6, i32 noundef %64)
  call void @llvm.memcpy.p0.p0.i64(ptr align 4 %0, ptr align 4 %6, i64 60, i1 false)
  br label %93

65:                                               ; preds = %60, %57
  %66 = load i32, ptr %3, align 4
  %67 = icmp sge i32 %66, 516
  br i1 %67, label %68, label %73

68:                                               ; preds = %65
  %69 = load i32, ptr %3, align 4
  %70 = icmp slt i32 %69, 26043
  br i1 %70, label %71, label %73

71:                                               ; preds = %68
  %72 = load i32, ptr %3, align 4
  call void @_ZN10open_spiel9dou_dizhu16AirplaneCombHandEi(ptr dead_on_unwind writable sret(%"struct.std::array") align 4 %7, i32 noundef %72)
  call void @llvm.memcpy.p0.p0.i64(ptr align 4 %0, ptr align 4 %7, i64 60, i1 false)
  br label %92

73:                                               ; preds = %68, %65
  %74 = load i32, ptr %3, align 4
  %75 = icmp eq i32 %74, 26056
  br i1 %75, label %76, label %79

76:                                               ; preds = %73
  %77 = call noundef nonnull align 4 dereferenceable(4) ptr @_ZNSt5arrayIiLm15EEixEm(ptr noundef nonnull align 4 dereferenceable(60) %0, i64 noundef 13) #3
  store i32 1, ptr %77, align 4
  %78 = call noundef nonnull align 4 dereferenceable(4) ptr @_ZNSt5arrayIiLm15EEixEm(ptr noundef nonnull align 4 dereferenceable(60) %0, i64 noundef 14) #3
  store i32 1, ptr %78, align 4
  br label %91

79:                                               ; preds = %73
  call void @_ZNSaIcEC1Ev(ptr noundef nonnull align 1 dereferenceable(1) %9) #3
  invoke void @_ZNSt7__cxx1112basic_stringIcSt11char_traitsIcESaIcEEC2IS3_EEPKcRKS3_(ptr noundef nonnull align 8 dereferenceable(32) %8, ptr noundef @.str.64, ptr noundef nonnull align 1 dereferenceable(1) %9)
          to label %80 unwind label %82

80:                                               ; preds = %79
  invoke void @_ZN10open_spiel15SpielFatalErrorERKNSt7__cxx1112basic_stringIcSt11char_traitsIcESaIcEEE(ptr noundef nonnull align 8 dereferenceable(32) %8) #14
          to label %81 unwind label %86

81:                                               ; preds = %80
  unreachable

82:                                               ; preds = %79
  %83 = landingpad { ptr, i32 }
          cleanup
  %84 = extractvalue { ptr, i32 } %83, 0
  store ptr %84, ptr %10, align 8
  %85 = extractvalue { ptr, i32 } %83, 1
  store i32 %85, ptr %11, align 4
  br label %90

86:                                               ; preds = %80
  %87 = landingpad { ptr, i32 }
          cleanup
  %88 = extractvalue { ptr, i32 } %87, 0
  store ptr %88, ptr %10, align 8
  %89 = extractvalue { ptr, i32 } %87, 1
  store i32 %89, ptr %11, align 4
  call void @_ZNSt7__cxx1112basic_stringIcSt11char_traitsIcESaIcEED1Ev(ptr noundef nonnull align 8 dereferenceable(32) %8) #3
  br label %90

90:                                               ; preds = %86, %82
  call void @_ZNSaIcED1Ev(ptr noundef nonnull align 1 dereferenceable(1) %9) #3
  br label %96

91:                                               ; preds = %76
  br label %92

92:                                               ; preds = %91, %71
  br label %93

93:                                               ; preds = %92, %63
  br label %94

94:                                               ; preds = %93, %55
  br label %95

95:                                               ; preds = %94, %35
  ret void

96:                                               ; preds = %90
  %97 = load ptr, ptr %10, align 8
  %98 = load i32, ptr %11, align 4
  %99 = insertvalue { ptr, i32 } poison, ptr %97, 0
  %100 = insertvalue { ptr, i32 } %99, i32 %98, 1
  resume { ptr, i32 } %100
}