; Function Attrs: mustprogress uwtable
define void @_ZN10open_spiel9dou_dizhu12ActionToHandEi(ptr dead_on_unwind noalias nocapture writable writeonly sret(%"struct.std::array") align 4 %0, i32 noundef %1) local_unnamed_addr #4 personality ptr @__gxx_personality_v0 {
  %3 = alloca %"struct.std::array", align 4
  %4 = alloca %"struct.std::array", align 4
  %5 = alloca %"struct.std::array", align 4
  %6 = alloca %"struct.std::array", align 4
  %7 = alloca %"class.std::__cxx11::basic_string", align 8
  %8 = alloca %"class.std::allocator", align 1
  tail call void @llvm.memset.p0.i64(ptr noundef nonnull align 4 dereferenceable(60) %0, i8 0, i64 60, i1 false)
  %9 = add i32 %1, -4
  %or.cond = icmp ult i32 %9, 15
  %10 = add i32 %1, -55
  %or.cond3 = icmp ult i32 %10, 13
  %or.cond44 = or i1 %or.cond, %or.cond3
  %11 = add i32 %1, -120
  %or.cond5 = icmp ult i32 %11, 13
  %or.cond45 = or i1 %or.cond5, %or.cond44
  %12 = add i32 %1, -26043
  %or.cond7 = icmp ult i32 %12, 13
  %or.cond46 = or i1 %or.cond7, %or.cond45
  br i1 %or.cond46, label %13, label %17

13:                                               ; preds = %2
  tail call void @llvm.experimental.noalias.scope.decl(metadata !16)
  call void @llvm.memset.p0.i64(ptr noundef nonnull align 4 dereferenceable(60) %3, i8 0, i64 60, i1 false), !alias.scope !16
  %14 = tail call i64 @_ZN10open_spiel9dou_dizhu23GetSingleRankHandParamsEi(i32 noundef %1), !noalias !16
  %.sroa.2.0.extract.shift.i = lshr i64 %14, 32
  %.sroa.2.0.extract.trunc.i = trunc nuw nsw i64 %.sroa.2.0.extract.shift.i to i32
  %sext.i = shl i64 %14, 32
  %15 = ashr exact i64 %sext.i, 32
  %16 = getelementptr inbounds [15 x i32], ptr %3, i64 0, i64 %15
  store i32 %.sroa.2.0.extract.trunc.i, ptr %16, align 4, !alias.scope !16
  call void @llvm.memcpy.p0.p0.i64(ptr noundef nonnull align 4 dereferenceable(60) %0, ptr noundef nonnull align 4 dereferenceable(60) %3, i64 60, i1 false)
  br label %63

17:                                               ; preds = %2
  %18 = add i32 %1, -19
  %or.cond9 = icmp ult i32 %18, 36
  %19 = add i32 %1, -68
  %or.cond11 = icmp ult i32 %19, 52
  %or.cond47 = or i1 %or.cond9, %or.cond11
  %20 = add i32 %1, -471
  %or.cond13 = icmp ult i32 %20, 45
  %or.cond48 = or i1 %or.cond13, %or.cond47
  br i1 %or.cond48, label %21, label %27

21:                                               ; preds = %17
  tail call void @llvm.experimental.noalias.scope.decl(metadata !19)
  call void @llvm.memset.p0.i64(ptr noundef nonnull align 4 dereferenceable(60) %4, i8 0, i64 60, i1 false), !alias.scope !19
  %22 = tail call { i64, i32 } @_ZN10open_spiel9dou_dizhu22GetChainOnlyHandParamsEi(i32 noundef %1), !noalias !19
  %.fca.0.extract.i = extractvalue { i64, i32 } %22, 0
  %.fca.1.extract.i = extractvalue { i64, i32 } %22, 1
  %.sroa.24.0.extract.shift.i = lshr i64 %.fca.0.extract.i, 32
  %.sroa.24.0.extract.trunc.i = trunc nuw i64 %.sroa.24.0.extract.shift.i to i32
  %23 = icmp sgt i32 %.fca.1.extract.i, 0
  br i1 %23, label %.lr.ph.preheader.i, label %_ZN10open_spiel9dou_dizhu13ChainOnlyHandEi.exit

.lr.ph.preheader.i:                               ; preds = %21
  %sext.i49 = shl i64 %.fca.0.extract.i, 32
  %24 = ashr exact i64 %sext.i49, 32
  %wide.trip.count.i = zext nneg i32 %.fca.1.extract.i to i64
  br label %.lr.ph.i

.lr.ph.i:                                         ; preds = %.lr.ph.i, %.lr.ph.preheader.i
  %indvars.iv.i = phi i64 [ 0, %.lr.ph.preheader.i ], [ %indvars.iv.next.i, %.lr.ph.i ]
  %25 = add nsw i64 %indvars.iv.i, %24
  %26 = getelementptr inbounds [15 x i32], ptr %4, i64 0, i64 %25
  store i32 %.sroa.24.0.extract.trunc.i, ptr %26, align 4, !alias.scope !19
  %indvars.iv.next.i = add nuw nsw i64 %indvars.iv.i, 1
  %exitcond.not.i = icmp eq i64 %indvars.iv.next.i, %wide.trip.count.i
  br i1 %exitcond.not.i, label %_ZN10open_spiel9dou_dizhu13ChainOnlyHandEi.exit, label %.lr.ph.i, !llvm.loop !22

_ZN10open_spiel9dou_dizhu13ChainOnlyHandEi.exit:  ; preds = %.lr.ph.i, %21
  call void @llvm.memcpy.p0.p0.i64(ptr noundef nonnull align 4 dereferenceable(60) %0, ptr noundef nonnull align 4 dereferenceable(60) %4, i64 60, i1 false)
  br label %63

27:                                               ; preds = %17
  %28 = add i32 %1, -133
  %or.cond15 = icmp ult i32 %28, 338
  br i1 %or.cond15, label %29, label %47

29:                                               ; preds = %27
  tail call void @llvm.experimental.noalias.scope.decl(metadata !23)
  call void @llvm.memset.p0.i64(ptr noundef nonnull align 4 dereferenceable(60) %5, i8 0, i64 60, i1 false), !alias.scope !23
  %30 = tail call { i64, i64 } @_ZN10open_spiel9dou_dizhu23GetSingleTrioCombParamsEi(i32 noundef %1), !noalias !23
  %31 = extractvalue { i64, i64 } %30, 0
  %.sroa.0.0.extract.trunc.i = trunc i64 %31 to i32
  %32 = extractvalue { i64, i64 } %30, 1
  %.sroa.5.8.extract.shift.i = lshr i64 %32, 32
  %.sroa.5.8.extract.trunc.i = trunc nuw i64 %.sroa.5.8.extract.shift.i to i32
  %sext.i50 = shl i64 %31, 32
  %33 = ashr exact i64 %sext.i50, 32
  %34 = getelementptr inbounds [15 x i32], ptr %5, i64 0, i64 %33
  store i32 3, ptr %34, align 4, !alias.scope !23
  br label %35

35:                                               ; preds = %40, %29
  %.011.i = phi i32 [ 0, %29 ], [ %.1.i, %40 ]
  %.0910.i = phi i32 [ 0, %29 ], [ %41, %40 ]
  %36 = icmp eq i32 %.0910.i, %.sroa.0.0.extract.trunc.i
  br i1 %36, label %40, label %37

37:                                               ; preds = %35
  %38 = add nsw i32 %.011.i, 1
  %39 = icmp eq i32 %.011.i, %.sroa.5.8.extract.trunc.i
  br i1 %39, label %_ZN10open_spiel9dou_dizhu18SingleTrioCombHandEi.exit, label %40

40:                                               ; preds = %37, %35
  %.1.i = phi i32 [ %.011.i, %35 ], [ %38, %37 ]
  %41 = add nuw nsw i32 %.0910.i, 1
  %exitcond.not.i51 = icmp eq i32 %41, 15
  br i1 %exitcond.not.i51, label %_ZN10open_spiel9dou_dizhu18SingleTrioCombHandEi.exit, label %35, !llvm.loop !26

_ZN10open_spiel9dou_dizhu18SingleTrioCombHandEi.exit: ; preds = %37, %40
  %.09.lcssa.i = phi i32 [ %.0910.i, %37 ], [ 15, %40 ]
  %42 = and i64 %32, 4294967295
  %43 = icmp eq i64 %42, 1
  %44 = select i1 %43, i32 1, i32 2
  %45 = zext nneg i32 %.09.lcssa.i to i64
  %46 = getelementptr inbounds [15 x i32], ptr %5, i64 0, i64 %45
  store i32 %44, ptr %46, align 4, !alias.scope !23
  call void @llvm.memcpy.p0.p0.i64(ptr noundef nonnull align 4 dereferenceable(60) %0, ptr noundef nonnull align 4 dereferenceable(60) %5, i64 60, i1 false)
  br label %63

47:                                               ; preds = %27
  %48 = add i32 %1, -516
  %or.cond17 = icmp ult i32 %48, 25527
  br i1 %or.cond17, label %49, label %50

49:                                               ; preds = %47
  call void @_ZN10open_spiel9dou_dizhu16AirplaneCombHandEi(ptr dead_on_unwind nonnull writable sret(%"struct.std::array") align 4 %6, i32 noundef %1)
  call void @llvm.memcpy.p0.p0.i64(ptr noundef nonnull align 4 dereferenceable(60) %0, ptr noundef nonnull align 4 dereferenceable(60) %6, i64 60, i1 false)
  br label %63

50:                                               ; preds = %47
  %51 = icmp eq i32 %1, 26056
  br i1 %51, label %52, label %55

52:                                               ; preds = %50
  %53 = getelementptr inbounds i8, ptr %0, i64 52
  store i32 1, ptr %53, align 4
  %54 = getelementptr inbounds i8, ptr %0, i64 56
  store i32 1, ptr %54, align 4
  br label %63

55:                                               ; preds = %50
  call void @_ZNSaIcEC1Ev(ptr noundef nonnull align 1 dereferenceable(1) %8) #19
  invoke void @_ZNSt7__cxx1112basic_stringIcSt11char_traitsIcESaIcEEC2IS3_EEPKcRKS3_(ptr noundef nonnull align 8 dereferenceable(32) %7, ptr noundef nonnull @.str.64, ptr noundef nonnull align 1 dereferenceable(1) %8)
          to label %56 unwind label %58

56:                                               ; preds = %55
  invoke void @_ZN10open_spiel15SpielFatalErrorERKNSt7__cxx1112basic_stringIcSt11char_traitsIcESaIcEEE(ptr noundef nonnull align 8 dereferenceable(32) %7) #20
          to label %57 unwind label %60

57:                                               ; preds = %56
  unreachable

58:                                               ; preds = %55
  %59 = landingpad { ptr, i32 }
          cleanup
  br label %62

60:                                               ; preds = %56
  %61 = landingpad { ptr, i32 }
          cleanup
  call void @_ZNSt7__cxx1112basic_stringIcSt11char_traitsIcESaIcEED1Ev(ptr noundef nonnull align 8 dereferenceable(32) %7) #19
  br label %62

62:                                               ; preds = %60, %58
  %.pn = phi { ptr, i32 } [ %61, %60 ], [ %59, %58 ]
  call void @_ZNSaIcED1Ev(ptr noundef nonnull align 1 dereferenceable(1) %8) #19
  resume { ptr, i32 } %.pn

63:                                               ; preds = %_ZN10open_spiel9dou_dizhu13ChainOnlyHandEi.exit, %49, %52, %_ZN10open_spiel9dou_dizhu18SingleTrioCombHandEi.exit, %13
  ret void
}